target datalayout = "e-m:e-p270:32:32-p271:32:32-p272:64:64-i64:64-i128:128-f80:128-n8:16:32:64-S128"
target triple = "x86_64-pc-linux-gnu"

%"class.std::__shared_count" = type { ptr }
%"class.pxrInternal_v0_24__pxrReserved__::Vt_ArrayBase" = type { %"struct.pxrInternal_v0_24__pxrReserved__::Vt_ShapeData", ptr }
%"struct.pxrInternal_v0_24__pxrReserved__::Vt_ShapeData" = type { i64, [3 x i32] }
%"class.pxrInternal_v0_24__pxrReserved__::VtArray.91" = type { %"class.pxrInternal_v0_24__pxrReserved__::Vt_ArrayBase", ptr }
%"class.std::shared_ptr.97" = type { %"class.std::__shared_ptr.98" }
%"class.std::__shared_ptr.98" = type { ptr, %"class.std::__shared_count" }
%"struct.pxrInternal_v0_24__pxrReserved__::GeomUtilMeshGeneratorBase::_PointWriter" = type { { i64, i64 }, ptr, ptr }

; Function Attrs: mustprogress nounwind uwtable
define linkonce_odr noundef ptr @_ZNKSt12__shared_ptrIN32pxrInternal_v0_24__pxrReserved__24HdTypedSampledDataSourceIdEELN9__gnu_cxx12_Lock_policyE2EE3getEv(ptr noundef nonnull align 8 dereferenceable(16) %0) #0 comdat align 2 {
  %2 = alloca ptr, align 8
  store ptr %0, ptr %2, align 8
  %3 = load ptr, ptr %2, align 8
  %4 = getelementptr inbounds nuw %"class.std::__shared_ptr.98", ptr %3, i32 0, i32 0
  %5 = load ptr, ptr %4, align 8
  ret ptr %5
}

; Function Attrs: mustprogress nounwind uwtable
define linkonce_odr noundef ptr @_ZNKSt19__shared_ptr_accessIN32pxrInternal_v0_24__pxrReserved__24HdTypedSampledDataSourceIdEELN9__gnu_cxx12_Lock_policyE2ELb0ELb0EE6_M_getEv(ptr noundef nonnull align 1 dereferenceable(1) %0) #0 comdat align 2 {
  %2 = alloca ptr, align 8
  store ptr %0, ptr %2, align 8
  %3 = load ptr, ptr %2, align 8
  %4 = call noundef ptr @_ZNKSt12__shared_ptrIN32pxrInternal_v0_24__pxrReserved__24HdTypedSampledDataSourceIdEELN9__gnu_cxx12_Lock_policyE2EE3getEv(ptr noundef nonnull align 8 dereferenceable(16) %3) #10
  ret ptr %4
}

; Function Attrs: mustprogress nounwind uwtable
define linkonce_odr void @_ZN32pxrInternal_v0_24__pxrReserved__25GeomUtilMeshGeneratorBase12_PointWriterINS_7GfVec3fEEC2IPS2_EERT_(ptr noundef nonnull align 8 dereferenceable(32) %0, ptr noundef nonnull align 8 dereferenceable(8) %1) unnamed_addr #0 comdat align 2 {
  %3 = alloca ptr, align 8
  %4 = alloca ptr, align 8
  store ptr %0, ptr %3, align 8
  store ptr %1, ptr %4, align 8
  %5 = load ptr, ptr %3, align 8
  %6 = getelementptr inbounds nuw %"struct.pxrInternal_v0_24__pxrReserved__::GeomUtilMeshGeneratorBase::_PointWriter", ptr %5, i32 0, i32 0
  store { i64, i64 } { i64 ptrtoint (ptr @_ZNK32pxrInternal_v0_24__pxrReserved__25GeomUtilMeshGeneratorBase12_PointWriterINS_7GfVec3fEE11_WritePointIPS2_EEvRKS2_ to i64), i64 0 }, ptr %6, align 8
  %7 = getelementptr inbounds nuw %"struct.pxrInternal_v0_24__pxrReserved__::GeomUtilMeshGeneratorBase::_PointWriter", ptr %5, i32 0, i32 1
  %8 = load ptr, ptr %4, align 8
  store ptr %8, ptr %7, align 8
  ret void
}

; Function Attrs: mustprogress nounwind uwtable
define linkonce_odr void @_ZN32pxrInternal_v0_24__pxrReserved__25GeomUtilMeshGeneratorBase12_PointWriterINS_7GfVec3fEEC2IPS2_EERT_PKNS_10GfMatrix4dE(ptr noundef nonnull align 8 dereferenceable(32) %0, ptr noundef nonnull align 8 dereferenceable(8) %1, ptr noundef %2) unnamed_addr #0 comdat align 2 {
  %4 = alloca ptr, align 8
  %5 = alloca ptr, align 8
  %6 = alloca ptr, align 8
  store ptr %0, ptr %4, align 8
  store ptr %1, ptr %5, align 8
  store ptr %2, ptr %6, align 8
  %7 = load ptr, ptr %4, align 8
  %8 = getelementptr inbounds nuw %"struct.pxrInternal_v0_24__pxrReserved__::GeomUtilMeshGeneratorBase::_PointWriter", ptr %7, i32 0, i32 0
  store { i64, i64 } { i64 ptrtoint (ptr @_ZNK32pxrInternal_v0_24__pxrReserved__25GeomUtilMeshGeneratorBase12_PointWriterINS_7GfVec3fEE23_TransformAndWritePointIPS2_EEvRKS2_ to i64), i64 0 }, ptr %8, align 8
  %9 = getelementptr inbounds nuw %"struct.pxrInternal_v0_24__pxrReserved__::GeomUtilMeshGeneratorBase::_PointWriter", ptr %7, i32 0, i32 1
  %10 = load ptr, ptr %5, align 8
  store ptr %10, ptr %9, align 8
  %11 = getelementptr inbounds nuw %"struct.pxrInternal_v0_24__pxrReserved__::GeomUtilMeshGeneratorBase::_PointWriter", ptr %7, i32 0, i32 2
  %12 = load ptr, ptr %6, align 8
  store ptr %12, ptr %11, align 8
  ret void
}

; Function Attrs: mustprogress nounwind uwtable
define linkonce_odr noundef ptr @_ZNKSt19__shared_ptr_accessIN32pxrInternal_v0_24__pxrReserved__24HdTypedSampledDataSourceIdEELN9__gnu_cxx12_Lock_policyE2ELb0ELb0EEptEv(ptr noundef nonnull align 1 dereferenceable(1) %0) #0 comdat align 2 {
  %2 = alloca ptr, align 8
  store ptr %0, ptr %2, align 8
  %3 = load ptr, ptr %2, align 8
  %4 = call noundef ptr @_ZNKSt19__shared_ptr_accessIN32pxrInternal_v0_24__pxrReserved__24HdTypedSampledDataSourceIdEELN9__gnu_cxx12_Lock_policyE2ELb0ELb0EE6_M_getEv(ptr noundef nonnull align 1 dereferenceable(1) %3) #10
  ret ptr %4
}

; Function Attrs: mustprogress nounwind uwtable
define linkonce_odr noundef zeroext i1 @_ZNKSt12__shared_ptrIN32pxrInternal_v0_24__pxrReserved__24HdTypedSampledDataSourceIdEELN9__gnu_cxx12_Lock_policyE2EEcvbEv(ptr noundef nonnull align 8 dereferenceable(16) %0) #0 comdat align 2 {
  %2 = alloca ptr, align 8
  store ptr %0, ptr %2, align 8
  %3 = load ptr, ptr %2, align 8
  %4 = getelementptr inbounds nuw %"class.std::__shared_ptr.98", ptr %3, i32 0, i32 0
  %5 = load ptr, ptr %4, align 8
  %6 = icmp ne ptr %5, null
  ret i1 %6
}

; Function Attrs: mustprogress uwtable
define linkonce_odr void @_ZN32pxrInternal_v0_24__pxrReserved__27GeomUtilCuboidMeshGenerator14GeneratePointsIPNS_7GfVec3fEdvEEvT_T0_S5_S5_PKNS_10GfMatrix4dE(ptr noundef %0, double noundef %1, double noundef %2, double noundef %3, ptr noundef %4) #1 comdat align 2 {
  %6 = alloca ptr, align 8
  %7 = alloca double, align 8
  %8 = alloca double, align 8
  %9 = alloca double, align 8
  %10 = alloca ptr, align 8
  %11 = alloca %"struct.pxrInternal_v0_24__pxrReserved__::GeomUtilMeshGeneratorBase::_PointWriter", align 8
  store ptr %0, ptr %6, align 8
  store double %1, ptr %7, align 8
  store double %2, ptr %8, align 8
  store double %3, ptr %9, align 8
  store ptr %4, ptr %10, align 8
  %12 = load double, ptr %7, align 8
  %13 = fptrunc double %12 to float
  %14 = load double, ptr %8, align 8
  %15 = fptrunc double %14 to float
  %16 = load double, ptr %9, align 8
  %17 = fptrunc double %16 to float
  %18 = load ptr, ptr %10, align 8
  %19 = icmp ne ptr %18, null
  br i1 %19, label %20, label %22

20:                                               ; preds = %5
  %21 = load ptr, ptr %10, align 8
  call void @_ZN32pxrInternal_v0_24__pxrReserved__25GeomUtilMeshGeneratorBase12_PointWriterINS_7GfVec3fEEC2IPS2_EERT_PKNS_10GfMatrix4dE(ptr noundef nonnull align 8 dereferenceable(32) %11, ptr noundef nonnull align 8 dereferenceable(8) %6, ptr noundef %21)
  br label %23

22:                                               ; preds = %5
  call void @_ZN32pxrInternal_v0_24__pxrReserved__25GeomUtilMeshGeneratorBase12_PointWriterINS_7GfVec3fEEC2IPS2_EERT_(ptr noundef nonnull align 8 dereferenceable(32) %11, ptr noundef nonnull align 8 dereferenceable(8) %6)
  br label %23

23:                                               ; preds = %22, %20
  call void @_ZN32pxrInternal_v0_24__pxrReserved__27GeomUtilCuboidMeshGenerator19_GeneratePointsImplINS_7GfVec3fEEEvNT_10ScalarTypeES4_S4_RKNS_25GeomUtilMeshGeneratorBase12_PointWriterIS3_EE(float noundef %13, float noundef %15, float noundef %17, ptr noundef nonnull align 8 dereferenceable(32) %11)
  ret void
}

; Function Attrs: mustprogress uwtable
define internal noundef double @_ZNK32pxrInternal_v0_24__pxrReserved__12_GLOBAL__N_111_CubeToMesh17_PointsDataSource8_GetSizeEf(ptr noundef nonnull align 8 dereferenceable(24) %0, float noundef %1) #1 align 2 personality ptr @__gxx_personality_v0 {
  %3 = alloca double, align 8
  %4 = alloca ptr, align 8
  %5 = alloca float, align 4
  %6 = alloca %"class.std::shared_ptr.97", align 8
  %7 = alloca ptr, align 8
  %8 = alloca i32, align 4
  %9 = alloca i32, align 4
  store ptr %0, ptr %4, align 8
  store float %1, ptr %5, align 4
  %10 = load ptr, ptr %4, align 8
  call void @_ZNK32pxrInternal_v0_24__pxrReserved__12_GLOBAL__N_111_CubeToMesh17_PointsDataSource14_GetSizeSourceEv(ptr dead_on_unwind writable sret(%"class.std::shared_ptr.97") align 8 %6, ptr noundef nonnull align 8 dereferenceable(24) %10)
  %11 = call noundef zeroext i1 @_ZNKSt12__shared_ptrIN32pxrInternal_v0_24__pxrReserved__24HdTypedSampledDataSourceIdEELN9__gnu_cxx12_Lock_policyE2EEcvbEv(ptr noundef nonnull align 8 dereferenceable(16) %6) #10
  br i1 %11, label %12, label %24

12:                                               ; preds = %2
  %13 = call noundef ptr @_ZNKSt19__shared_ptr_accessIN32pxrInternal_v0_24__pxrReserved__24HdTypedSampledDataSourceIdEELN9__gnu_cxx12_Lock_policyE2ELb0ELb0EEptEv(ptr noundef nonnull align 1 dereferenceable(1) %6) #10
  %14 = load float, ptr %5, align 4
  %15 = load ptr, ptr %13, align 8
  %16 = getelementptr inbounds ptr, ptr %15, i64 4
  %17 = load ptr, ptr %16, align 8
  %18 = invoke noundef double %17(ptr noundef nonnull align 8 dereferenceable(8) %13, float noundef %14)
          to label %19 unwind label %20

19:                                               ; preds = %12
  store double %18, ptr %3, align 8
  store i32 1, ptr %9, align 4
  br label %25

20:                                               ; preds = %12
  %21 = landingpad { ptr, i32 }
          cleanup
  %22 = extractvalue { ptr, i32 } %21, 0
  store ptr %22, ptr %7, align 8
  %23 = extractvalue { ptr, i32 } %21, 1
  store i32 %23, ptr %8, align 4
  call void @_ZNSt10shared_ptrIN32pxrInternal_v0_24__pxrReserved__24HdTypedSampledDataSourceIdEEED2Ev(ptr noundef nonnull align 8 dereferenceable(16) %6) #10
  br label %30

24:                                               ; preds = %2
  store i32 0, ptr %9, align 4
  br label %25

25:                                               ; preds = %24, %19
  call void @_ZNSt10shared_ptrIN32pxrInternal_v0_24__pxrReserved__24HdTypedSampledDataSourceIdEEED2Ev(ptr noundef nonnull align 8 dereferenceable(16) %6) #10
  %26 = load i32, ptr %9, align 4
  switch i32 %26, label %35 [
    i32 0, label %27
    i32 1, label %28
  ]

27:                                               ; preds = %25
  store double 1.000000e+00, ptr %3, align 8
  br label %28

28:                                               ; preds = %27, %25
  %29 = load double, ptr %3, align 8
  ret double %29

30:                                               ; preds = %20
  %31 = load ptr, ptr %7, align 8
  %32 = load i32, ptr %8, align 4
  %33 = insertvalue { ptr, i32 } poison, ptr %31, 0
  %34 = insertvalue { ptr, i32 } %33, i32 %32, 1
  resume { ptr, i32 } %34

35:                                               ; preds = %25
  unreachable
}

; Function Attrs: mustprogress uwtable
define internal void @_ZN32pxrInternal_v0_24__pxrReserved__12_GLOBAL__N_111_CubeToMesh17_PointsDataSource13GetTypedValueEf(ptr dead_on_unwind noalias writable sret(%"class.pxrInternal_v0_24__pxrReserved__::VtArray.91") align 8 %0, ptr noundef nonnull align 8 dereferenceable(24) %1, float noundef %2) unnamed_addr #1 align 2 personality ptr @__gxx_personality_v0 {
  %4 = alloca ptr, align 8
  %5 = alloca ptr, align 8
  %6 = alloca float, align 4
  %7 = alloca i64, align 8
  %8 = alloca i1, align 1
  %9 = alloca double, align 8
  %10 = alloca ptr, align 8
  %11 = alloca i32, align 4
  store ptr %0, ptr %4, align 8
  store ptr %1, ptr %5, align 8
  store float %2, ptr %6, align 4
  %12 = load ptr, ptr %5, align 8
  %13 = call noundef i64 @_ZN32pxrInternal_v0_24__pxrReserved__27GeomUtilCuboidMeshGenerator16ComputeNumPointsEv()
  store i64 %13, ptr %7, align 8
  store i1 false, ptr %8, align 1
  %14 = load i64, ptr %7, align 8
  call void @_ZN32pxrInternal_v0_24__pxrReserved__7VtArrayINS_7GfVec3fEEC1Em(ptr noundef nonnull align 8 dereferenceable(40) %0, i64 noundef %14)
  %15 = load float, ptr %6, align 4
  %16 = invoke noundef double @_ZNK32pxrInternal_v0_24__pxrReserved__12_GLOBAL__N_111_CubeToMesh17_PointsDataSource8_GetSizeEf(ptr noundef nonnull align 8 dereferenceable(24) %12, float noundef %15)
          to label %17 unwind label %25

17:                                               ; preds = %3
  store double %16, ptr %9, align 8
  %18 = invoke noundef ptr @_ZN32pxrInternal_v0_24__pxrReserved__7VtArrayINS_7GfVec3fEE5beginEv(ptr noundef nonnull align 8 dereferenceable(40) %0)
          to label %19 unwind label %25

19:                                               ; preds = %17
  %20 = load double, ptr %9, align 8
  %21 = load double, ptr %9, align 8
  %22 = load double, ptr %9, align 8
  invoke void @_ZN32pxrInternal_v0_24__pxrReserved__27GeomUtilCuboidMeshGenerator14GeneratePointsIPNS_7GfVec3fEdvEEvT_T0_S5_S5_PKNS_10GfMatrix4dE(ptr noundef %18, double noundef %20, double noundef %21, double noundef %22, ptr noundef null)
          to label %23 unwind label %25

23:                                               ; preds = %19
  store i1 true, ptr %8, align 1
  %24 = load i1, ptr %8, align 1
  br i1 %24, label %30, label %29

25:                                               ; preds = %19, %17, %3
  %26 = landingpad { ptr, i32 }
          cleanup
  %27 = extractvalue { ptr, i32 } %26, 0
  store ptr %27, ptr %10, align 8
  %28 = extractvalue { ptr, i32 } %26, 1
  store i32 %28, ptr %11, align 4
  call void @_ZN32pxrInternal_v0_24__pxrReserved__7VtArrayINS_7GfVec3fEED1Ev(ptr noundef nonnull align 8 dereferenceable(40) %0) #10
  br label %31

29:                                               ; preds = %23
  call void @_ZN32pxrInternal_v0_24__pxrReserved__7VtArrayINS_7GfVec3fEED1Ev(ptr noundef nonnull align 8 dereferenceable(40) %0) #10
  br label %30

30:                                               ; preds = %29, %23
  ret void

31:                                               ; preds = %25
  %32 = load ptr, ptr %10, align 8
  %33 = load i32, ptr %11, align 4
  %34 = insertvalue { ptr, i32 } poison, ptr %32, 0
  %35 = insertvalue { ptr, i32 } %34, i32 %33, 1
  resume { ptr, i32 } %35
}