; Function Attrs: mustprogress uwtable
define internal void @_ZN32pxrInternal_v0_24__pxrReserved__12_GLOBAL__N_111_CubeToMesh17_PointsDataSource13GetTypedValueEf(ptr dead_on_unwind noalias writable sret(%"class.pxrInternal_v0_24__pxrReserved__::VtArray.91") align 8 %0, ptr noundef nonnull align 8 dereferenceable(24) %1, float noundef %2) unnamed_addr #1 align 2 personality ptr @__gxx_personality_v0 {
  %4 = alloca ptr, align 8
  %5 = alloca %"struct.pxrInternal_v0_24__pxrReserved__::GeomUtilMeshGeneratorBase::_PointWriter", align 8
  %6 = alloca %"class.std::shared_ptr.97", align 8
  %7 = tail call noundef i64 @_ZN32pxrInternal_v0_24__pxrReserved__27GeomUtilCuboidMeshGenerator16ComputeNumPointsEv()
  tail call void @_ZN32pxrInternal_v0_24__pxrReserved__7VtArrayINS_7GfVec3fEEC1Em(ptr noundef nonnull align 8 dereferenceable(40) %0, i64 noundef %7)
  call void @llvm.lifetime.start.p0(i64 16, ptr nonnull %6)
  invoke fastcc void @_ZNK32pxrInternal_v0_24__pxrReserved__12_GLOBAL__N_111_CubeToMesh17_PointsDataSource14_GetSizeSourceEv(ptr dead_on_unwind noalias nonnull writable align 8 %6, ptr noundef nonnull align 8 dereferenceable(24) %1)
          to label %.noexc unwind label %60

.noexc:                                           ; preds = %3
  %8 = load ptr, ptr %6, align 8
  %.not.i = icmp eq ptr %8, null
  br i1 %.not.i, label %16, label %9

9:                                                ; preds = %.noexc
  %10 = load ptr, ptr %8, align 8
  %11 = getelementptr inbounds i8, ptr %10, i64 32
  %12 = load ptr, ptr %11, align 8
  %13 = invoke noundef double %12(ptr noundef nonnull align 8 dereferenceable(8) %8, float noundef %2)
          to label %16 unwind label %14

14:                                               ; preds = %9
  %15 = landingpad { ptr, i32 }
          cleanup
  call void @_ZNSt10shared_ptrIN32pxrInternal_v0_24__pxrReserved__24HdTypedSampledDataSourceIdEEED2Ev(ptr noundef nonnull align 8 dereferenceable(16) %6) #24
  br label %.body

16:                                               ; preds = %9, %.noexc
  %.05.i = phi double [ %13, %9 ], [ undef, %.noexc ]
  %17 = getelementptr inbounds nuw i8, ptr %6, i64 8
  %18 = load ptr, ptr %17, align 8
  %.not.i.i.i.i = icmp eq ptr %18, null
  br i1 %.not.i.i.i.i, label %53, label %19

19:                                               ; preds = %16
  %20 = getelementptr inbounds nuw i8, ptr %18, i64 8
  %21 = load atomic i64, ptr %20 acquire, align 8
  %22 = icmp eq i64 %21, 4294967297
  %23 = trunc i64 %21 to i32
  br i1 %22, label %24, label %29

24:                                               ; preds = %19
  store i32 0, ptr %20, align 8
  %25 = getelementptr inbounds nuw i8, ptr %18, i64 12
  store i32 0, ptr %25, align 4
  %26 = load ptr, ptr %18, align 8
  %27 = getelementptr inbounds i8, ptr %26, i64 16
  %28 = load ptr, ptr %27, align 8
  tail call void %28(ptr noundef nonnull align 8 dereferenceable(16) %18) #24
  br label %_ZNSt16_Sp_counted_baseILN9__gnu_cxx12_Lock_policyE2EE24_M_release_last_use_coldEv.exit.sink.split.i.i.i.i.i

29:                                               ; preds = %19
  %30 = load i8, ptr @__libc_single_threaded, align 1
  %.not.i.i.i.i.i = icmp eq i8 %30, 0
  br i1 %.not.i.i.i.i.i, label %33, label %31

31:                                               ; preds = %29
  %32 = add nsw i32 %23, -1
  store i32 %32, ptr %20, align 4
  br label %35

33:                                               ; preds = %29
  %34 = atomicrmw volatile add ptr %20, i32 -1 acq_rel, align 4
  br label %35

35:                                               ; preds = %33, %31
  %.0.i.i.i.i.i = phi i32 [ %23, %31 ], [ %34, %33 ]
  %36 = icmp eq i32 %.0.i.i.i.i.i, 1
  br i1 %36, label %37, label %53

37:                                               ; preds = %35
  %38 = load ptr, ptr %18, align 8
  %39 = getelementptr inbounds i8, ptr %38, i64 16
  %40 = load ptr, ptr %39, align 8
  tail call void %40(ptr noundef nonnull align 8 dereferenceable(16) %18) #24
  %41 = getelementptr inbounds nuw i8, ptr %18, i64 12
  %42 = load i8, ptr @__libc_single_threaded, align 1
  %.not.i.i.i.i.i.i.i = icmp eq i8 %42, 0
  br i1 %.not.i.i.i.i.i.i.i, label %46, label %43

43:                                               ; preds = %37
  %44 = load i32, ptr %41, align 4
  %45 = add nsw i32 %44, -1
  store i32 %45, ptr %41, align 4
  br label %48

46:                                               ; preds = %37
  %47 = atomicrmw volatile add ptr %41, i32 -1 acq_rel, align 4
  br label %48

48:                                               ; preds = %46, %43
  %.0.i.i.i.i.i.i.i = phi i32 [ %44, %43 ], [ %47, %46 ]
  %49 = icmp eq i32 %.0.i.i.i.i.i.i.i, 1
  br i1 %49, label %_ZNSt16_Sp_counted_baseILN9__gnu_cxx12_Lock_policyE2EE24_M_release_last_use_coldEv.exit.sink.split.i.i.i.i.i, label %53

_ZNSt16_Sp_counted_baseILN9__gnu_cxx12_Lock_policyE2EE24_M_release_last_use_coldEv.exit.sink.split.i.i.i.i.i: ; preds = %48, %24
  %50 = load ptr, ptr %18, align 8
  %51 = getelementptr inbounds i8, ptr %50, i64 24
  %52 = load ptr, ptr %51, align 8
  tail call void %52(ptr noundef nonnull align 8 dereferenceable(16) %18) #24
  br label %53

53:                                               ; preds = %_ZNSt16_Sp_counted_baseILN9__gnu_cxx12_Lock_policyE2EE24_M_release_last_use_coldEv.exit.sink.split.i.i.i.i.i, %48, %35, %16
  call void @llvm.lifetime.end.p0(i64 16, ptr nonnull %6)
  %54 = invoke noundef ptr @_ZN32pxrInternal_v0_24__pxrReserved__7VtArrayINS_7GfVec3fEE5beginEv(ptr noundef nonnull align 8 dereferenceable(40) %0)
          to label %55 unwind label %60

55:                                               ; preds = %53
  %56 = fptrunc double %.05.i to float
  call void @llvm.lifetime.start.p0(i64 8, ptr nonnull %4)
  call void @llvm.lifetime.start.p0(i64 32, ptr nonnull %5)
  store ptr %54, ptr %4, align 8
  store i64 ptrtoint (ptr @_ZNK32pxrInternal_v0_24__pxrReserved__25GeomUtilMeshGeneratorBase12_PointWriterINS_7GfVec3fEE11_WritePointIPS2_EEvRKS2_ to i64), ptr %5, align 8
  %57 = getelementptr inbounds i8, ptr %5, i64 8
  store i64 0, ptr %57, align 8
  %58 = getelementptr inbounds nuw i8, ptr %5, i64 16
  store ptr %4, ptr %58, align 8
  %59 = select i1 %.not.i, float 1.000000e+00, float %56
  invoke void @_ZN32pxrInternal_v0_24__pxrReserved__27GeomUtilCuboidMeshGenerator19_GeneratePointsImplINS_7GfVec3fEEEvNT_10ScalarTypeES4_S4_RKNS_25GeomUtilMeshGeneratorBase12_PointWriterIS3_EE(float noundef %59, float noundef %59, float noundef %59, ptr noundef nonnull align 8 dereferenceable(32) %5)
          to label %62 unwind label %60

60:                                               ; preds = %55, %3, %53
  %61 = landingpad { ptr, i32 }
          cleanup
  br label %.body

.body:                                            ; preds = %14, %60
  %eh.lpad-body = phi { ptr, i32 } [ %61, %60 ], [ %15, %14 ]
  call void @_ZN32pxrInternal_v0_24__pxrReserved__7VtArrayINS_7GfVec3fEED1Ev(ptr noundef nonnull align 8 dereferenceable(40) %0) #24
  resume { ptr, i32 } %eh.lpad-body

62:                                               ; preds = %55
  call void @llvm.lifetime.end.p0(i64 8, ptr nonnull %4)
  call void @llvm.lifetime.end.p0(i64 32, ptr nonnull %5)
  ret void
}